target datalayout = "e-m:e-p270:32:32-p271:32:32-p272:64:64-i64:64-i128:128-f80:128-n8:16:32:64-S128"
target triple = "x86_64-unknown-linux-gnu"

%struct.assoc_array_ops = type { ptr, ptr, ptr, ptr, ptr }
%struct.keyring_search_context = type { %struct.keyring_index_key, ptr, %struct.key_match_data, i32, ptr, i32, i8, ptr, i64 }
%struct.keyring_index_key = type { i64, %union.anon.7, ptr, ptr, ptr }
%union.anon.7 = type { i64 }
%struct.key_match_data = type { ptr, ptr, ptr, i32 }

@keyring_assoc_array_ops = internal constant %struct.assoc_array_ops { ptr @keyring_get_key_chunk, ptr @keyring_get_object_key_chunk, ptr @keyring_compare_object, ptr @keyring_diff_objects, ptr @keyring_free_object }, align 8
@.str.1 = private unnamed_addr constant [24 x i8] c"security/keys/keyring.c\00", align 1

; Function Attrs: fn_ret_thunk_extern nounwind null_pointer_is_valid
define dso_local i32 @__key_link_begin(ptr noundef %0, ptr noundef %1, ptr nocapture noundef %2) local_unnamed_addr #0 align 16 {
  %4 = getelementptr inbounds i8, ptr %1, i64 8
  %5 = load i16, ptr %4, align 8
  %6 = icmp eq i16 %5, 0
  br i1 %6, label %7, label %8, !prof !14

7:                                                ; preds = %3
  tail call void asm sideeffect "465: nop\0A\09.pushsection .discard.instr_begin\0A\09.long 465b - .\0A\09.popsection\0A\09", "i,~{dirflag},~{fpsr},~{flags}"(i32 465) #19, !srcloc !28
  tail call void asm sideeffect "1:\09.byte 0x0f, 0x0b\0A.pushsection __bug_table,\22aw\22\0A2:\09.long 1b - .\09# bug_entry::bug_addr\0A\09.long ${0:c} - .\09# bug_entry::file\0A\09.word ${1:c}\09# bug_entry::line\0A\09.word ${2:c}\09# bug_entry::flags\0A\09.org 2b+${3:c}\0A.popsection\0A", "i,i,i,i,~{dirflag},~{fpsr},~{flags}"(ptr nonnull @.str.1, i32 1302, i32 0, i64 12) #19, !srcloc !29
  unreachable

8:                                                ; preds = %3
  %9 = load ptr, ptr %2, align 8
  %10 = icmp eq ptr %9, null
  br i1 %10, label %12, label %11, !prof !12

11:                                               ; preds = %8
  tail call void asm sideeffect "466: nop\0A\09.pushsection .discard.instr_begin\0A\09.long 466b - .\0A\09.popsection\0A\09", "i,~{dirflag},~{fpsr},~{flags}"(i32 466) #19, !srcloc !30
  tail call void asm sideeffect "1:\09.byte 0x0f, 0x0b\0A.pushsection __bug_table,\22aw\22\0A2:\09.long 1b - .\09# bug_entry::bug_addr\0A\09.long ${0:c} - .\09# bug_entry::file\0A\09.word ${1:c}\09# bug_entry::line\0A\09.word ${2:c}\09# bug_entry::flags\0A\09.org 2b+${3:c}\0A.popsection\0A", "i,i,i,i,~{dirflag},~{fpsr},~{flags}"(ptr nonnull @.str.1, i32 1303, i32 0, i64 12) #19, !srcloc !31
  unreachable

12:                                               ; preds = %8
  store ptr null, ptr %2, align 8
  %13 = getelementptr inbounds i8, ptr %0, i64 128
  %14 = load volatile i64, ptr %13, align 8
  %15 = and i64 %14, 2
  %16 = icmp eq i64 %15, 0
  br i1 %16, label %17, label %37

17:                                               ; preds = %12
  %18 = getelementptr inbounds i8, ptr %0, i64 192
  %19 = tail call ptr @assoc_array_insert(ptr noundef %18, ptr noundef nonnull @keyring_assoc_array_ops, ptr noundef %1, ptr noundef null) #19
  %20 = icmp ugt ptr %19, inttoptr (i64 -4096 to ptr)
  br i1 %20, label %21, label %24

21:                                               ; preds = %17
  %22 = ptrtoint ptr %19 to i64
  %23 = trunc i64 %22 to i32
  br label %37

24:                                               ; preds = %17
  %25 = getelementptr inbounds i8, ptr %19, i64 56
  %26 = load ptr, ptr %25, align 8
  %27 = icmp eq ptr %26, null
  br i1 %27, label %28, label %35

28:                                               ; preds = %24
  %29 = getelementptr inbounds i8, ptr %0, i64 118
  %30 = load i16, ptr %29, align 2
  %31 = zext i16 %30 to i64
  %32 = add nuw nsw i64 %31, 4
  %33 = tail call i32 @key_payload_reserve(ptr noundef %0, i64 noundef %32) #19
  %34 = icmp slt i32 %33, 0
  br i1 %34, label %36, label %35

35:                                               ; preds = %28, %24
  store ptr %19, ptr %2, align 8
  br label %37

36:                                               ; preds = %28
  tail call void @assoc_array_cancel_edit(ptr noundef %19) #19
  br label %37

37:                                               ; preds = %36, %35, %21, %12
  %38 = phi i32 [ 0, %35 ], [ %23, %21 ], [ %33, %36 ], [ -128, %12 ]
  ret i32 %38
}

; Function Attrs: fn_ret_thunk_extern nounwind null_pointer_is_valid
define dso_local i32 @key_link(ptr noundef %0, ptr noundef %1) #0 align 16 {
  %3 = alloca %struct.keyring_search_context, align 8
  %4 = alloca ptr, align 8
  call void @llvm.lifetime.start.p0(i64 8, ptr nonnull %4) #19
  store ptr null, ptr %4, align 8
  %5 = getelementptr inbounds i8, ptr %1, i64 136
  %6 = getelementptr inbounds i8, ptr %0, i64 152
  %7 = load ptr, ptr %6, align 8
  %8 = icmp eq ptr %7, @key_type_keyring
  br i1 %8, label %9, label %15

9:                                                ; preds = %2
  %10 = getelementptr inbounds i8, ptr %0, i64 32
  tail call void @down_write(ptr noundef %10) #19
  %11 = getelementptr inbounds i8, ptr %1, i64 152
  %12 = load ptr, ptr %11, align 8
  %13 = icmp eq ptr %12, @key_type_keyring
  br i1 %13, label %14, label %15

14:                                               ; preds = %9
  tail call void @mutex_lock(ptr noundef nonnull @keyring_serialise_link_lock) #19
  br label %15

15:                                               ; preds = %14, %9, %2
  %16 = phi i32 [ -20, %2 ], [ 0, %14 ], [ 0, %9 ]
  br i1 %8, label %17, label %102

17:                                               ; preds = %15
  %18 = call i32 @__key_link_begin(ptr noundef %0, ptr noundef %5, ptr noundef nonnull %4)
  %19 = icmp slt i32 %18, 0
  br i1 %19, label %77, label %20

20:                                               ; preds = %17
  %21 = getelementptr inbounds i8, ptr %0, i64 208
  %22 = load ptr, ptr %21, align 8
  %23 = icmp eq ptr %22, null
  br i1 %23, label %34, label %24

24:                                               ; preds = %20
  %25 = load ptr, ptr %22, align 8
  %26 = icmp eq ptr %25, null
  br i1 %26, label %34, label %27

27:                                               ; preds = %24
  %28 = getelementptr inbounds i8, ptr %1, i64 152
  %29 = load ptr, ptr %28, align 8
  %30 = getelementptr inbounds i8, ptr %1, i64 176
  %31 = getelementptr inbounds i8, ptr %22, i64 8
  %32 = load ptr, ptr %31, align 8
  %33 = tail call i32 %25(ptr noundef %0, ptr noundef %29, ptr noundef %30, ptr noundef %32) #19
  br label %34

34:                                               ; preds = %27, %24, %20
  %35 = phi i32 [ %33, %27 ], [ 0, %24 ], [ 0, %20 ]
  %36 = icmp eq i32 %35, 0
  br i1 %36, label %37, label %56

37:                                               ; preds = %34
  %38 = getelementptr inbounds i8, ptr %1, i64 152
  %39 = load ptr, ptr %38, align 8
  %40 = icmp eq ptr %39, @key_type_keyring
  br i1 %40, label %41, label %56

41:                                               ; preds = %37
  call void @llvm.lifetime.start.p0(i64 120, ptr nonnull %3) #19
  %42 = getelementptr inbounds i8, ptr %0, i64 136
  %43 = getelementptr inbounds i8, ptr %3, i64 40
  call void @llvm.memset.p0.i64(ptr noundef align 8 dereferenceable(80) %43, i8 0, i64 80, i1 false)
  call void @llvm.memcpy.p0.p0.i64(ptr noundef nonnull align 8 dereferenceable(40) %3, ptr noundef align 8 dereferenceable(40) %42, i64 40, i1 false)
  %44 = getelementptr inbounds i8, ptr %3, i64 56
  call void @llvm.memset.p0.i64(ptr noundef align 8 dereferenceable(40) %43, i8 0, i64 40, i1 false)
  store ptr %0, ptr %44, align 8
  %45 = getelementptr inbounds i8, ptr %3, i64 80
  store i32 93, ptr %45, align 8
  %46 = getelementptr inbounds i8, ptr %3, i64 88
  store ptr @keyring_detect_cycle_iterator, ptr %46, align 8
  %47 = getelementptr inbounds i8, ptr %3, i64 96
  store i32 0, ptr %47, align 8
  %48 = getelementptr inbounds i8, ptr %3, i64 100
  store i8 0, ptr %48, align 4
  %49 = getelementptr inbounds i8, ptr %3, i64 104
  call void @llvm.memset.p0.i64(ptr noundef align 8 dereferenceable(16) %49, i8 0, i64 16, i1 false)
  tail call void @__rcu_read_lock() #19
  %50 = call fastcc zeroext i1 @search_nested_keyrings(ptr noundef %1, ptr noundef nonnull %3)
  call void @__rcu_read_unlock() #19
  %51 = load ptr, ptr %49, align 8
  %52 = ptrtoint ptr %51 to i64
  %53 = icmp eq ptr %51, inttoptr (i64 -11 to ptr)
  %54 = trunc i64 %52 to i32
  %55 = select i1 %53, i32 0, i32 %54
  call void @llvm.lifetime.end.p0(i64 120, ptr nonnull %3) #19
  br label %56

56:                                               ; preds = %41, %37, %34
  %57 = phi i32 [ %35, %34 ], [ %55, %41 ], [ 0, %37 ]
  %58 = icmp eq i32 %57, 0
  br i1 %58, label %59, label %77

59:                                               ; preds = %56
  %60 = call i32 asm sideeffect ".pushsection .smp_locks,\22a\22\0A.balign 4\0A.long 671f - .\0A.popsection\0A671:\0A\09lock; xaddl $0, $1\0A", "=r,=*m,0,*m,~{memory},~{cc},~{dirflag},~{fpsr},~{flags}"(ptr elementtype(i32) %1, i32 1, ptr elementtype(i32) %1) #19, !srcloc !13
  %61 = icmp eq i32 %60, 0
  br i1 %61, label %66, label %62, !prof !14

62:                                               ; preds = %59
  %63 = add i32 %60, 1
  %64 = or i32 %63, %60
  %65 = icmp sgt i32 %64, -1
  br i1 %65, label %68, label %66, !prof !12

66:                                               ; preds = %62, %59
  %67 = phi i32 [ 2, %59 ], [ 1, %62 ]
  call void @refcount_warn_saturate(ptr noundef %1, i32 noundef %67) #19
  br label %68

68:                                               ; preds = %66, %62
  %69 = load ptr, ptr %4, align 8
  %70 = getelementptr inbounds i8, ptr %1, i64 152
  %71 = load ptr, ptr %70, align 8
  %72 = icmp eq ptr %71, @key_type_keyring
  %73 = ptrtoint ptr %1 to i64
  %74 = or i64 %73, 2
  %75 = inttoptr i64 %74 to ptr
  %76 = select i1 %72, ptr %75, ptr %1
  call void @assoc_array_insert_set_object(ptr noundef %69, ptr noundef %76) #19
  call void @assoc_array_apply_edit(ptr noundef %69) #19
  store ptr null, ptr %4, align 8
  br label %77

77:                                               ; preds = %68, %56, %17
  %78 = phi i32 [ %18, %17 ], [ 0, %68 ], [ %57, %56 ]
  %79 = load ptr, ptr %4, align 8
  %80 = getelementptr inbounds i8, ptr %1, i64 152
  %81 = load ptr, ptr %80, align 8
  %82 = icmp eq ptr %81, null
  br i1 %82, label %83, label %84, !prof !14

83:                                               ; preds = %77
  call void asm sideeffect "467: nop\0A\09.pushsection .discard.instr_begin\0A\09.long 467b - .\0A\09.popsection\0A\09", "i,~{dirflag},~{fpsr},~{flags}"(i32 467) #19, !srcloc !32
  call void asm sideeffect "1:\09.byte 0x0f, 0x0b\0A.pushsection __bug_table,\22aw\22\0A2:\09.long 1b - .\09# bug_entry::bug_addr\0A\09.long ${0:c} - .\09# bug_entry::file\0A\09.word ${1:c}\09# bug_entry::line\0A\09.word ${2:c}\09# bug_entry::flags\0A\09.org 2b+${3:c}\0A.popsection\0A", "i,i,i,i,~{dirflag},~{fpsr},~{flags}"(ptr nonnull @.str.1, i32 1388, i32 0, i64 12) #19, !srcloc !33
  unreachable

84:                                               ; preds = %77
  %85 = icmp eq ptr %79, null
  br i1 %85, label %97, label %86

86:                                               ; preds = %84
  %87 = getelementptr inbounds i8, ptr %79, i64 56
  %88 = load ptr, ptr %87, align 8
  %89 = icmp eq ptr %88, null
  br i1 %89, label %90, label %96

90:                                               ; preds = %86
  %91 = getelementptr inbounds i8, ptr %0, i64 118
  %92 = load i16, ptr %91, align 2
  %93 = zext i16 %92 to i64
  %94 = add nsw i64 %93, -4
  %95 = call i32 @key_payload_reserve(ptr noundef %0, i64 noundef %94) #19
  br label %96

96:                                               ; preds = %90, %86
  call void @assoc_array_cancel_edit(ptr noundef nonnull %79) #19
  br label %97

97:                                               ; preds = %96, %84
  %98 = getelementptr inbounds i8, ptr %0, i64 32
  call void @up_write(ptr noundef %98) #19
  %99 = load ptr, ptr %80, align 8
  %100 = icmp eq ptr %99, @key_type_keyring
  br i1 %100, label %101, label %102

101:                                              ; preds = %97
  call void @mutex_unlock(ptr noundef nonnull @keyring_serialise_link_lock) #19
  br label %102

102:                                              ; preds = %101, %97, %15
  %103 = phi i32 [ %16, %15 ], [ %78, %97 ], [ %78, %101 ]
  call void @llvm.lifetime.end.p0(i64 8, ptr nonnull %4) #19
  ret i32 %103
}