; Function Attrs: fn_ret_thunk_extern nounwind null_pointer_is_valid
define dso_local i32 @key_link(ptr noundef %0, ptr noundef %1) #0 align 16 {
  %3 = alloca %struct.keyring_search_context, align 8
  %4 = getelementptr inbounds i8, ptr %1, i64 136
  %5 = getelementptr inbounds i8, ptr %0, i64 152
  %6 = load ptr, ptr %5, align 8
  %7 = icmp eq ptr %6, @key_type_keyring
  br i1 %7, label %8, label %109

8:                                                ; preds = %2
  %9 = getelementptr inbounds i8, ptr %0, i64 32
  tail call void @down_write(ptr noundef %9) #20
  %10 = getelementptr inbounds i8, ptr %1, i64 152
  %11 = load ptr, ptr %10, align 8
  %12 = icmp eq ptr %11, @key_type_keyring
  br i1 %12, label %13, label %14

13:                                               ; preds = %8
  tail call void @mutex_lock(ptr noundef nonnull @keyring_serialise_link_lock) #20
  br label %14

14:                                               ; preds = %13, %8
  %15 = getelementptr inbounds i8, ptr %1, i64 144
  %16 = load i16, ptr %15, align 8
  %17 = icmp eq i16 %16, 0
  br i1 %17, label %18, label %19, !prof !13

18:                                               ; preds = %14
  tail call void asm sideeffect "465: nop\0A\09.pushsection .discard.instr_begin\0A\09.long 465b - .\0A\09.popsection\0A\09", "i,~{dirflag},~{fpsr},~{flags}"(i32 465) #20, !srcloc !28
  tail call void asm sideeffect "1:\09.byte 0x0f, 0x0b\0A.pushsection __bug_table,\22aw\22\0A2:\09.long 1b - .\09# bug_entry::bug_addr\0A\09.long ${0:c} - .\09# bug_entry::file\0A\09.word ${1:c}\09# bug_entry::line\0A\09.word ${2:c}\09# bug_entry::flags\0A\09.org 2b+${3:c}\0A.popsection\0A", "i,i,i,i,~{dirflag},~{fpsr},~{flags}"(ptr nonnull @.str.1, i32 1302, i32 0, i64 12) #20, !srcloc !29
  unreachable

19:                                               ; preds = %14
  %20 = getelementptr inbounds i8, ptr %0, i64 128
  %21 = load volatile i64, ptr %20, align 8
  %22 = and i64 %21, 2
  %23 = icmp eq i64 %22, 0
  br i1 %23, label %24, label %__key_link_begin.exit.thread

24:                                               ; preds = %19
  %25 = getelementptr inbounds i8, ptr %0, i64 192
  %26 = tail call ptr @assoc_array_insert(ptr noundef %25, ptr noundef nonnull @keyring_assoc_array_ops, ptr noundef %4, ptr noundef null) #20
  %27 = icmp ugt ptr %26, inttoptr (i64 -4096 to ptr)
  br i1 %27, label %__key_link_begin.exit, label %28

28:                                               ; preds = %24
  %29 = getelementptr inbounds i8, ptr %26, i64 56
  %30 = load ptr, ptr %29, align 8
  %31 = icmp eq ptr %30, null
  br i1 %31, label %32, label %__key_link_begin.exit.thread11

32:                                               ; preds = %28
  %33 = getelementptr inbounds i8, ptr %0, i64 118
  %34 = load i16, ptr %33, align 2
  %35 = zext i16 %34 to i64
  %36 = add nuw nsw i64 %35, 4
  %37 = tail call i32 @key_payload_reserve(ptr noundef %0, i64 noundef %36) #20
  %38 = icmp slt i32 %37, 0
  br i1 %38, label %39, label %__key_link_begin.exit.thread11

39:                                               ; preds = %32
  tail call void @assoc_array_cancel_edit(ptr noundef %26) #20
  br label %__key_link_begin.exit.thread

__key_link_begin.exit:                            ; preds = %24
  %40 = ptrtoint ptr %26 to i64
  %41 = trunc i64 %40 to i32
  %42 = icmp slt i32 %41, 0
  br i1 %42, label %__key_link_begin.exit.thread, label %__key_link_begin.exit.thread11

__key_link_begin.exit.thread11:                   ; preds = %28, %32, %__key_link_begin.exit
  %.013 = phi ptr [ null, %__key_link_begin.exit ], [ %26, %32 ], [ %26, %28 ]
  %43 = getelementptr inbounds i8, ptr %0, i64 208
  %44 = load ptr, ptr %43, align 8
  %45 = icmp eq ptr %44, null
  br i1 %45, label %.thread15, label %46

46:                                               ; preds = %__key_link_begin.exit.thread11
  %47 = load ptr, ptr %44, align 8
  %48 = icmp eq ptr %47, null
  br i1 %48, label %.thread15, label %49

49:                                               ; preds = %46
  %50 = load ptr, ptr %10, align 8
  %51 = getelementptr inbounds i8, ptr %1, i64 176
  %52 = getelementptr inbounds i8, ptr %44, i64 8
  %53 = load ptr, ptr %52, align 8
  %54 = tail call i32 %47(ptr noundef %0, ptr noundef %50, ptr noundef %51, ptr noundef %53) #20
  %55 = icmp eq i32 %54, 0
  br i1 %55, label %.thread15, label %__key_link_begin.exit.thread

.thread15:                                        ; preds = %__key_link_begin.exit.thread11, %46, %49
  %56 = load ptr, ptr %10, align 8
  %57 = icmp eq ptr %56, @key_type_keyring
  br i1 %57, label %58, label %.thread17

58:                                               ; preds = %.thread15
  call void @llvm.lifetime.start.p0(i64 120, ptr nonnull %3) #20
  %59 = getelementptr inbounds i8, ptr %0, i64 136
  %60 = getelementptr inbounds i8, ptr %3, i64 40
  %61 = getelementptr inbounds i8, ptr %3, i64 80
  call void @llvm.memset.p0.i64(ptr noundef align 8 dereferenceable(80) %61, i8 0, i64 24, i1 false)
  call void @llvm.memcpy.p0.p0.i64(ptr noundef nonnull align 8 dereferenceable(40) %3, ptr noundef align 8 dereferenceable(40) %59, i64 40, i1 false)
  %62 = getelementptr inbounds i8, ptr %3, i64 56
  call void @llvm.memset.p0.i64(ptr noundef align 8 dereferenceable(40) %60, i8 0, i64 40, i1 false)
  store ptr %0, ptr %62, align 8
  %63 = getelementptr inbounds i8, ptr %3, i64 80
  store i32 93, ptr %63, align 8
  %64 = getelementptr inbounds i8, ptr %3, i64 88
  store ptr @keyring_detect_cycle_iterator, ptr %64, align 8
  %65 = getelementptr inbounds i8, ptr %3, i64 100
  store i8 0, ptr %65, align 4
  %66 = getelementptr inbounds i8, ptr %3, i64 104
  call void @llvm.memset.p0.i64(ptr noundef align 8 dereferenceable(16) %66, i8 0, i64 16, i1 false)
  tail call void @__rcu_read_lock() #20
  %67 = call fastcc zeroext i1 @search_nested_keyrings(ptr noundef %1, ptr noundef nonnull %3)
  call void @__rcu_read_unlock() #20
  %68 = load ptr, ptr %66, align 8
  %69 = ptrtoint ptr %68 to i64
  %70 = icmp eq ptr %68, inttoptr (i64 -11 to ptr)
  %71 = trunc i64 %69 to i32
  call void @llvm.lifetime.end.p0(i64 120, ptr nonnull %3) #20
  %72 = icmp eq i32 %71, 0
  %or.cond = or i1 %70, %72
  br i1 %or.cond, label %.thread17, label %__key_link_begin.exit.thread

.thread17:                                        ; preds = %58, %.thread15
  %73 = call i32 asm sideeffect ".pushsection .smp_locks,\22a\22\0A.balign 4\0A.long 671f - .\0A.popsection\0A671:\0A\09lock; xaddl $0, $1\0A", "=r,=*m,0,*m,~{memory},~{cc},~{dirflag},~{fpsr},~{flags}"(ptr elementtype(i32) %1, i32 1, ptr elementtype(i32) %1) #20, !srcloc !12
  %74 = icmp eq i32 %73, 0
  br i1 %74, label %79, label %75, !prof !13

75:                                               ; preds = %.thread17
  %76 = add i32 %73, 1
  %77 = or i32 %76, %73
  %78 = icmp sgt i32 %77, -1
  br i1 %78, label %81, label %79, !prof !10

79:                                               ; preds = %75, %.thread17
  %80 = phi i32 [ 2, %.thread17 ], [ 1, %75 ]
  call void @refcount_warn_saturate(ptr noundef %1, i32 noundef %80) #20
  br label %81

81:                                               ; preds = %79, %75
  %82 = load ptr, ptr %10, align 8
  %83 = icmp eq ptr %82, @key_type_keyring
  %84 = ptrtoint ptr %1 to i64
  %85 = or i64 %84, 2
  %86 = inttoptr i64 %85 to ptr
  %87 = select i1 %83, ptr %86, ptr %1
  call void @assoc_array_insert_set_object(ptr noundef %.013, ptr noundef %87) #20
  call void @assoc_array_apply_edit(ptr noundef %.013) #20
  br label %__key_link_begin.exit.thread

__key_link_begin.exit.thread:                     ; preds = %58, %49, %19, %39, %81, %__key_link_begin.exit
  %.1 = phi ptr [ null, %__key_link_begin.exit ], [ null, %81 ], [ null, %39 ], [ null, %19 ], [ %.013, %49 ], [ %.013, %58 ]
  %88 = phi i32 [ %41, %__key_link_begin.exit ], [ 0, %81 ], [ %37, %39 ], [ -128, %19 ], [ %54, %49 ], [ %71, %58 ]
  %89 = load ptr, ptr %10, align 8
  %90 = icmp eq ptr %89, null
  br i1 %90, label %91, label %92, !prof !13

91:                                               ; preds = %__key_link_begin.exit.thread
  call void asm sideeffect "467: nop\0A\09.pushsection .discard.instr_begin\0A\09.long 467b - .\0A\09.popsection\0A\09", "i,~{dirflag},~{fpsr},~{flags}"(i32 467) #20, !srcloc !32
  call void asm sideeffect "1:\09.byte 0x0f, 0x0b\0A.pushsection __bug_table,\22aw\22\0A2:\09.long 1b - .\09# bug_entry::bug_addr\0A\09.long ${0:c} - .\09# bug_entry::file\0A\09.word ${1:c}\09# bug_entry::line\0A\09.word ${2:c}\09# bug_entry::flags\0A\09.org 2b+${3:c}\0A.popsection\0A", "i,i,i,i,~{dirflag},~{fpsr},~{flags}"(ptr nonnull @.str.1, i32 1388, i32 0, i64 12) #20, !srcloc !33
  unreachable

92:                                               ; preds = %__key_link_begin.exit.thread
  %93 = icmp eq ptr %.1, null
  br i1 %93, label %105, label %94

94:                                               ; preds = %92
  %95 = getelementptr inbounds i8, ptr %.1, i64 56
  %96 = load ptr, ptr %95, align 8
  %97 = icmp eq ptr %96, null
  br i1 %97, label %98, label %104

98:                                               ; preds = %94
  %99 = getelementptr inbounds i8, ptr %0, i64 118
  %100 = load i16, ptr %99, align 2
  %101 = zext i16 %100 to i64
  %102 = add nsw i64 %101, -4
  %103 = call i32 @key_payload_reserve(ptr noundef %0, i64 noundef %102) #20
  br label %104

104:                                              ; preds = %98, %94
  call void @assoc_array_cancel_edit(ptr noundef nonnull %.1) #20
  br label %105

105:                                              ; preds = %104, %92
  call void @up_write(ptr noundef %9) #20
  %106 = load ptr, ptr %10, align 8
  %107 = icmp eq ptr %106, @key_type_keyring
  br i1 %107, label %108, label %109

108:                                              ; preds = %105
  call void @mutex_unlock(ptr noundef nonnull @keyring_serialise_link_lock) #20
  br label %109

109:                                              ; preds = %2, %108, %105
  %110 = phi i32 [ %88, %105 ], [ %88, %108 ], [ -20, %2 ]
  ret i32 %110
}